; ModuleID = 'source-C-CXX/56/2432.c'
source_filename = "source-C-CXX/56/2432.c"
target datalayout = "e-m:e-p270:32:32-p271:32:32-p272:64:64-i64:64-f80:128-n8:16:32:64-S128"
target triple = "x86_64-pc-linux-gnu"

@.str = private unnamed_addr constant [3 x i8] c"%d\00", align 1

; Function Attrs: nounwind sspstrong uwtable
define dso_local void @main() local_unnamed_addr #0 {
  %1 = alloca [15 x i8], align 1
  %2 = alloca i32, align 4
  %3 = getelementptr inbounds [15 x i8], [15 x i8]* %1, i64 0, i64 0
  call void @llvm.lifetime.start.p0i8(i64 15, i8* nonnull %3) #6
  %4 = bitcast i32* %2 to i8*
  call void @llvm.lifetime.start.p0i8(i64 4, i8* nonnull %4) #6
  %5 = call i32 (i8*, ...) @__isoc99_scanf(i8* getelementptr inbounds ([3 x i8], [3 x i8]* @.str, i64 0, i64 0), i32* nonnull %2)
  %6 = call i32 (i8*, ...) bitcast (i32 (...)* @gets to i32 (i8*, ...)*)(i8* nonnull %3) #6
  %7 = load i32, i32* %2, align 4, !tbaa !5
  %8 = icmp sgt i32 %7, 0
  br i1 %8, label %9, label %51

9:                                                ; preds = %0, %46
  %10 = phi i32 [ %48, %46 ], [ 0, %0 ]
  %11 = call i32 (i8*, ...) bitcast (i32 (...)* @gets to i32 (i8*, ...)*)(i8* nonnull %3) #6
  %12 = call i64 @strlen(i8* noundef nonnull %3) #7
  %13 = trunc i64 %12 to i32
  %14 = shl i64 %12, 32
  %15 = add i64 %14, -4294967296
  %16 = ashr exact i64 %15, 32
  %17 = getelementptr inbounds [15 x i8], [15 x i8]* %1, i64 0, i64 %16
  %18 = load i8, i8* %17, align 1, !tbaa !9
  %19 = icmp eq i8 %18, 103
  br i1 %19, label %25, label %20

20:                                               ; preds = %9
  %21 = icmp sgt i32 %13, 2
  br i1 %21, label %22, label %46

22:                                               ; preds = %20
  %23 = add i64 %12, 4294967294
  %24 = and i64 %23, 4294967295
  br label %38

25:                                               ; preds = %9
  %26 = icmp sgt i32 %13, 3
  br i1 %26, label %27, label %46

27:                                               ; preds = %25
  %28 = add i64 %12, 4294967293
  %29 = and i64 %28, 4294967295
  br label %30

30:                                               ; preds = %27, %30
  %31 = phi i64 [ 0, %27 ], [ %36, %30 ]
  %32 = getelementptr inbounds [15 x i8], [15 x i8]* %1, i64 0, i64 %31
  %33 = load i8, i8* %32, align 1, !tbaa !9
  %34 = sext i8 %33 to i32
  %35 = call i32 @putchar(i32 %34)
  %36 = add nuw nsw i64 %31, 1
  %37 = icmp eq i64 %36, %29
  br i1 %37, label %46, label %30, !llvm.loop !10

38:                                               ; preds = %22, %38
  %39 = phi i64 [ 0, %22 ], [ %44, %38 ]
  %40 = getelementptr inbounds [15 x i8], [15 x i8]* %1, i64 0, i64 %39
  %41 = load i8, i8* %40, align 1, !tbaa !9
  %42 = sext i8 %41 to i32
  %43 = call i32 @putchar(i32 %42)
  %44 = add nuw nsw i64 %39, 1
  %45 = icmp eq i64 %44, %24
  br i1 %45, label %46, label %38, !llvm.loop !12

46:                                               ; preds = %38, %30, %20, %25
  %47 = call i32 @putchar(i32 10)
  %48 = add nuw nsw i32 %10, 1
  %49 = load i32, i32* %2, align 4, !tbaa !5
  %50 = icmp slt i32 %48, %49
  br i1 %50, label %9, label %51, !llvm.loop !13

51:                                               ; preds = %46, %0
  call void @llvm.lifetime.end.p0i8(i64 4, i8* nonnull %4) #6
  call void @llvm.lifetime.end.p0i8(i64 15, i8* nonnull %3) #6
  ret void
}

; Function Attrs: argmemonly mustprogress nofree nosync nounwind willreturn
declare void @llvm.lifetime.start.p0i8(i64 immarg, i8* nocapture) #1

; Function Attrs: nofree nounwind
declare noundef i32 @__isoc99_scanf(i8* nocapture noundef readonly, ...) local_unnamed_addr #2

declare i32 @gets(...) local_unnamed_addr #3

; Function Attrs: argmemonly mustprogress nofree nounwind readonly willreturn
declare i64 @strlen(i8* nocapture) local_unnamed_addr #4

; Function Attrs: argmemonly mustprogress nofree nosync nounwind willreturn
declare void @llvm.lifetime.end.p0i8(i64 immarg, i8* nocapture) #1

; Function Attrs: nofree nounwind
declare noundef i32 @putchar(i32 noundef) local_unnamed_addr #5


!llvm.module.flags = !{!0, !1, !2, !3}
!llvm.ident = !{!4}

!0 = !{i32 1, !"wchar_size", i32 4}
!1 = !{i32 7, !"PIC Level", i32 2}
!2 = !{i32 7, !"PIE Level", i32 2}
!3 = !{i32 7, !"uwtable", i32 1}
!4 = !{!"clang version 13.0.0"}
!5 = !{!6, !6, i64 0}
!6 = !{!"int", !7, i64 0}
!7 = !{!"omnipotent char", !8, i64 0}
!8 = !{!"Simple C/C++ TBAA"}
!9 = !{!7, !7, i64 0}
!10 = distinct !{!10, !11}
!11 = !{!"llvm.loop.mustprogress"}
!12 = distinct !{!12, !11}
!13 = distinct !{!13, !11}
